; Function Attrs: nounwind uwtable
define internal void @Compressor_dealloc(ptr noundef %0) #0 {
  %2 = getelementptr inbounds nuw i8, ptr %0, i64 40
  tail call void @lzma_end(ptr noundef nonnull %2) #10
  %3 = getelementptr inbounds nuw i8, ptr %0, i64 184
  %4 = load ptr, ptr %3, align 8, !tbaa !38
  %.not = icmp eq ptr %4, null
  br i1 %.not, label %6, label %5

5:                                                ; preds = %1
  tail call void @PyThread_free_lock(ptr noundef nonnull %4) #10
  br label %6

6:                                                ; preds = %5, %1
  %7 = getelementptr i8, ptr %0, i64 8
  %.val = load ptr, ptr %7, align 8, !tbaa !44
  %8 = getelementptr inbounds nuw i8, ptr %.val, i64 320
  %9 = load ptr, ptr %8, align 8, !tbaa !45
  tail call void %9(ptr noundef nonnull %0) #10
  %10 = load i32, ptr %.val, align 8, !tbaa !14
  %.not.i = icmp sgt i32 %10, -1
  br i1 %.not.i, label %11, label %Py_DECREF.exit

11:                                               ; preds = %6
  %12 = add nsw i32 %10, -1
  store i32 %12, ptr %.val, align 8, !tbaa !14
  %13 = icmp eq i32 %12, 0
  br i1 %13, label %14, label %Py_DECREF.exit

14:                                               ; preds = %11
  tail call void @_Py_Dealloc(ptr noundef nonnull %.val) #10
  br label %Py_DECREF.exit

Py_DECREF.exit:                                   ; preds = %6, %11, %14
  ret void
}